target datalayout = "e-m:e-p270:32:32-p271:32:32-p272:64:64-i64:64-i128:128-f80:128-n8:16:32:64-S128"
target triple = "x86_64-pc-linux-gnu"

%"class.std::__cxx11::basic_string" = type { %"struct.std::__cxx11::basic_string<char>::_Alloc_hider", i64, %union.anon }
%"struct.std::__cxx11::basic_string<char>::_Alloc_hider" = type { ptr }
%union.anon = type { i64, [8 x i8] }
%"class.i18n::phonenumbers::StringHolder" = type { %"class.absl::debian2::AlphaNum" }
%"class.absl::debian2::AlphaNum" = type { %"class.absl::debian2::string_view", [32 x i8] }
%"class.absl::debian2::string_view" = type { ptr, i64 }

@_ZN4i18n12phonenumbers12_GLOBAL__N_17kDigitsE = internal constant [7 x i8] c"\\p{Nd}\00", align 1
@.str.73 = private unnamed_addr constant [3 x i8] c"([\00", align 1
@.str.100 = private unnamed_addr constant [5 x i8] c"]{1,\00", align 1
@.str.101 = private unnamed_addr constant [3 x i8] c"})\00", align 1

; Function Attrs: mustprogress uwtable
define internal void @_ZN4i18n12phonenumbers12_GLOBAL__N_110ExtnDigitsB5cxx11Ei(ptr dead_on_unwind noalias writable sret(%"class.std::__cxx11::basic_string") align 8 %0, i32 noundef %1) #4 personality ptr @__gxx_personality_v0 {
  %3 = alloca ptr, align 8
  %4 = alloca i32, align 4
  %5 = alloca %"class.i18n::phonenumbers::StringHolder", align 8
  %6 = alloca %"class.i18n::phonenumbers::StringHolder", align 8
  %7 = alloca ptr, align 8
  %8 = alloca i32, align 4
  %9 = alloca %"class.i18n::phonenumbers::StringHolder", align 8
  %10 = alloca %"class.i18n::phonenumbers::StringHolder", align 8
  %11 = alloca %"class.i18n::phonenumbers::StringHolder", align 8
  store ptr %0, ptr %3, align 8
  store i32 %1, ptr %4, align 4
  call void @_ZN4i18n12phonenumbers12StringHolderC1EPKc(ptr noundef nonnull align 8 dereferenceable(48) %5, ptr noundef @.str.73)
  invoke void @_ZN4i18n12phonenumbers12StringHolderC1EPKc(ptr noundef nonnull align 8 dereferenceable(48) %6, ptr noundef @_ZN4i18n12phonenumbers12_GLOBAL__N_17kDigitsE)
          to label %12 unwind label %19

12:                                               ; preds = %2
  invoke void @_ZN4i18n12phonenumbers12StringHolderC1EPKc(ptr noundef nonnull align 8 dereferenceable(48) %9, ptr noundef @.str.100)
          to label %13 unwind label %23

13:                                               ; preds = %12
  %14 = load i32, ptr %4, align 4
  %15 = sext i32 %14 to i64
  invoke void @_ZN4i18n12phonenumbers12StringHolderC1Em(ptr noundef nonnull align 8 dereferenceable(48) %10, i64 noundef %15)
          to label %16 unwind label %27

16:                                               ; preds = %13
  invoke void @_ZN4i18n12phonenumbers12StringHolderC1EPKc(ptr noundef nonnull align 8 dereferenceable(48) %11, ptr noundef @.str.101)
          to label %17 unwind label %31

17:                                               ; preds = %16
  invoke void @_ZN4i18n12phonenumbers6StrCatB5cxx11ERKNS0_12StringHolderES3_S3_S3_S3_(ptr dead_on_unwind writable sret(%"class.std::__cxx11::basic_string") align 8 %0, ptr noundef nonnull align 8 dereferenceable(48) %5, ptr noundef nonnull align 8 dereferenceable(48) %6, ptr noundef nonnull align 8 dereferenceable(48) %9, ptr noundef nonnull align 8 dereferenceable(48) %10, ptr noundef nonnull align 8 dereferenceable(48) %11)
          to label %18 unwind label %35

18:                                               ; preds = %17
  call void @_ZN4i18n12phonenumbers12StringHolderD1Ev(ptr noundef nonnull align 8 dereferenceable(48) %11) #3
  call void @_ZN4i18n12phonenumbers12StringHolderD1Ev(ptr noundef nonnull align 8 dereferenceable(48) %10) #3
  call void @_ZN4i18n12phonenumbers12StringHolderD1Ev(ptr noundef nonnull align 8 dereferenceable(48) %9) #3
  call void @_ZN4i18n12phonenumbers12StringHolderD1Ev(ptr noundef nonnull align 8 dereferenceable(48) %6) #3
  call void @_ZN4i18n12phonenumbers12StringHolderD1Ev(ptr noundef nonnull align 8 dereferenceable(48) %5) #3
  ret void

19:                                               ; preds = %2
  %20 = landingpad { ptr, i32 }
          cleanup
  %21 = extractvalue { ptr, i32 } %20, 0
  store ptr %21, ptr %7, align 8
  %22 = extractvalue { ptr, i32 } %20, 1
  store i32 %22, ptr %8, align 4
  br label %42

23:                                               ; preds = %12
  %24 = landingpad { ptr, i32 }
          cleanup
  %25 = extractvalue { ptr, i32 } %24, 0
  store ptr %25, ptr %7, align 8
  %26 = extractvalue { ptr, i32 } %24, 1
  store i32 %26, ptr %8, align 4
  br label %41

27:                                               ; preds = %13
  %28 = landingpad { ptr, i32 }
          cleanup
  %29 = extractvalue { ptr, i32 } %28, 0
  store ptr %29, ptr %7, align 8
  %30 = extractvalue { ptr, i32 } %28, 1
  store i32 %30, ptr %8, align 4
  br label %40

31:                                               ; preds = %16
  %32 = landingpad { ptr, i32 }
          cleanup
  %33 = extractvalue { ptr, i32 } %32, 0
  store ptr %33, ptr %7, align 8
  %34 = extractvalue { ptr, i32 } %32, 1
  store i32 %34, ptr %8, align 4
  br label %39

35:                                               ; preds = %17
  %36 = landingpad { ptr, i32 }
          cleanup
  %37 = extractvalue { ptr, i32 } %36, 0
  store ptr %37, ptr %7, align 8
  %38 = extractvalue { ptr, i32 } %36, 1
  store i32 %38, ptr %8, align 4
  call void @_ZN4i18n12phonenumbers12StringHolderD1Ev(ptr noundef nonnull align 8 dereferenceable(48) %11) #3
  br label %39

39:                                               ; preds = %35, %31
  call void @_ZN4i18n12phonenumbers12StringHolderD1Ev(ptr noundef nonnull align 8 dereferenceable(48) %10) #3
  br label %40

40:                                               ; preds = %39, %27
  call void @_ZN4i18n12phonenumbers12StringHolderD1Ev(ptr noundef nonnull align 8 dereferenceable(48) %9) #3
  br label %41

41:                                               ; preds = %40, %23
  call void @_ZN4i18n12phonenumbers12StringHolderD1Ev(ptr noundef nonnull align 8 dereferenceable(48) %6) #3
  br label %42

42:                                               ; preds = %41, %19
  call void @_ZN4i18n12phonenumbers12StringHolderD1Ev(ptr noundef nonnull align 8 dereferenceable(48) %5) #3
  br label %43

43:                                               ; preds = %42
  %44 = load ptr, ptr %7, align 8
  %45 = load i32, ptr %8, align 4
  %46 = insertvalue { ptr, i32 } poison, ptr %44, 0
  %47 = insertvalue { ptr, i32 } %46, i32 %45, 1
  resume { ptr, i32 } %47
}