; Function Attrs: mustprogress uwtable
define internal fastcc void @_ZN4i18n12phonenumbers12_GLOBAL__N_110ExtnDigitsB5cxx11Ei(ptr dead_on_unwind noalias writable align 8 %0, i32 noundef %1) unnamed_addr #4 personality ptr @__gxx_personality_v0 {
  %3 = alloca %"class.i18n::phonenumbers::StringHolder", align 8
  %4 = alloca %"class.i18n::phonenumbers::StringHolder", align 8
  %5 = alloca %"class.i18n::phonenumbers::StringHolder", align 8
  %6 = alloca %"class.i18n::phonenumbers::StringHolder", align 8
  %7 = alloca %"class.i18n::phonenumbers::StringHolder", align 8
  call void @_ZN4i18n12phonenumbers12StringHolderC1EPKc(ptr noundef nonnull align 8 dereferenceable(48) %3, ptr noundef nonnull @.str.73)
  invoke void @_ZN4i18n12phonenumbers12StringHolderC1EPKc(ptr noundef nonnull align 8 dereferenceable(48) %4, ptr noundef nonnull @_ZN4i18n12phonenumbers12_GLOBAL__N_17kDigitsE)
          to label %8 unwind label %14

8:                                                ; preds = %2
  invoke void @_ZN4i18n12phonenumbers12StringHolderC1EPKc(ptr noundef nonnull align 8 dereferenceable(48) %5, ptr noundef nonnull @.str.100)
          to label %9 unwind label %16

9:                                                ; preds = %8
  %10 = zext nneg i32 %1 to i64
  invoke void @_ZN4i18n12phonenumbers12StringHolderC1Em(ptr noundef nonnull align 8 dereferenceable(48) %6, i64 noundef %10)
          to label %11 unwind label %18

11:                                               ; preds = %9
  invoke void @_ZN4i18n12phonenumbers12StringHolderC1EPKc(ptr noundef nonnull align 8 dereferenceable(48) %7, ptr noundef nonnull @.str.101)
          to label %12 unwind label %20

12:                                               ; preds = %11
  invoke void @_ZN4i18n12phonenumbers6StrCatB5cxx11ERKNS0_12StringHolderES3_S3_S3_S3_(ptr dead_on_unwind writable sret(%"class.std::__cxx11::basic_string") align 8 %0, ptr noundef nonnull align 8 dereferenceable(48) %3, ptr noundef nonnull align 8 dereferenceable(48) %4, ptr noundef nonnull align 8 dereferenceable(48) %5, ptr noundef nonnull align 8 dereferenceable(48) %6, ptr noundef nonnull align 8 dereferenceable(48) %7)
          to label %13 unwind label %22

13:                                               ; preds = %12
  call void @_ZN4i18n12phonenumbers12StringHolderD1Ev(ptr noundef nonnull align 8 dereferenceable(48) %7) #26
  call void @_ZN4i18n12phonenumbers12StringHolderD1Ev(ptr noundef nonnull align 8 dereferenceable(48) %6) #26
  call void @_ZN4i18n12phonenumbers12StringHolderD1Ev(ptr noundef nonnull align 8 dereferenceable(48) %5) #26
  call void @_ZN4i18n12phonenumbers12StringHolderD1Ev(ptr noundef nonnull align 8 dereferenceable(48) %4) #26
  call void @_ZN4i18n12phonenumbers12StringHolderD1Ev(ptr noundef nonnull align 8 dereferenceable(48) %3) #26
  ret void

14:                                               ; preds = %2
  %15 = landingpad { ptr, i32 }
          cleanup
  br label %27

16:                                               ; preds = %8
  %17 = landingpad { ptr, i32 }
          cleanup
  br label %26

18:                                               ; preds = %9
  %19 = landingpad { ptr, i32 }
          cleanup
  br label %25

20:                                               ; preds = %11
  %21 = landingpad { ptr, i32 }
          cleanup
  br label %24

22:                                               ; preds = %12
  %23 = landingpad { ptr, i32 }
          cleanup
  call void @_ZN4i18n12phonenumbers12StringHolderD1Ev(ptr noundef nonnull align 8 dereferenceable(48) %7) #26
  br label %24

24:                                               ; preds = %22, %20
  %.pn = phi { ptr, i32 } [ %23, %22 ], [ %21, %20 ]
  call void @_ZN4i18n12phonenumbers12StringHolderD1Ev(ptr noundef nonnull align 8 dereferenceable(48) %6) #26
  br label %25

25:                                               ; preds = %24, %18
  %.pn.pn = phi { ptr, i32 } [ %.pn, %24 ], [ %19, %18 ]
  call void @_ZN4i18n12phonenumbers12StringHolderD1Ev(ptr noundef nonnull align 8 dereferenceable(48) %5) #26
  br label %26

26:                                               ; preds = %25, %16
  %.pn.pn.pn = phi { ptr, i32 } [ %.pn.pn, %25 ], [ %17, %16 ]
  call void @_ZN4i18n12phonenumbers12StringHolderD1Ev(ptr noundef nonnull align 8 dereferenceable(48) %4) #26
  br label %27

27:                                               ; preds = %26, %14
  %.pn.pn.pn.pn = phi { ptr, i32 } [ %.pn.pn.pn, %26 ], [ %15, %14 ]
  call void @_ZN4i18n12phonenumbers12StringHolderD1Ev(ptr noundef nonnull align 8 dereferenceable(48) %3) #26
  resume { ptr, i32 } %.pn.pn.pn.pn
}